; ModuleID = '14/225.c'
source_filename = "14/225.c"
target datalayout = "e-m:e-p270:32:32-p271:32:32-p272:64:64-i64:64-f80:128-n8:16:32:64-S128"
target triple = "x86_64-pc-linux-gnu"

%struct.student = type { i32, i32, i32 }

@.str = private unnamed_addr constant [3 x i8] c"%d\00", align 1
@.str.1 = private unnamed_addr constant [9 x i8] c"%d %d %d\00", align 1
@.str.2 = private unnamed_addr constant [7 x i8] c"%d %d\0A\00", align 1

; Function Attrs: noinline nounwind uwtable
define dso_local i32 @main() #0 {
  %1 = alloca i32, align 4
  %2 = alloca i32, align 4
  %3 = alloca i32, align 4
  %4 = alloca i32, align 4
  %5 = alloca i32, align 4
  %6 = alloca i32, align 4
  %7 = alloca i32, align 4
  %8 = alloca i32, align 4
  %9 = alloca i32, align 4
  %10 = alloca [100000 x i32], align 16
  %11 = alloca [100000 x %struct.student], align 16
  store i32 0, i32* %1, align 4
  %12 = call i32 (i8*, ...) @__isoc99_scanf(i8* getelementptr inbounds ([3 x i8], [3 x i8]* @.str, i64 0, i64 0), i32* %2)
  store i32 0, i32* %3, align 4
  br label %13

13:                                               ; preds = %45, %0
  %14 = load i32, i32* %3, align 4
  %15 = load i32, i32* %2, align 4
  %16 = icmp slt i32 %14, %15
  br i1 %16, label %17, label %48

17:                                               ; preds = %13
  %18 = load i32, i32* %3, align 4
  %19 = sext i32 %18 to i64
  %20 = getelementptr inbounds [100000 x %struct.student], [100000 x %struct.student]* %11, i64 0, i64 %19
  %21 = getelementptr inbounds %struct.student, %struct.student* %20, i32 0, i32 0
  %22 = load i32, i32* %3, align 4
  %23 = sext i32 %22 to i64
  %24 = getelementptr inbounds [100000 x %struct.student], [100000 x %struct.student]* %11, i64 0, i64 %23
  %25 = getelementptr inbounds %struct.student, %struct.student* %24, i32 0, i32 1
  %26 = load i32, i32* %3, align 4
  %27 = sext i32 %26 to i64
  %28 = getelementptr inbounds [100000 x %struct.student], [100000 x %struct.student]* %11, i64 0, i64 %27
  %29 = getelementptr inbounds %struct.student, %struct.student* %28, i32 0, i32 2
  %30 = call i32 (i8*, ...) @__isoc99_scanf(i8* getelementptr inbounds ([9 x i8], [9 x i8]* @.str.1, i64 0, i64 0), i32* %21, i32* %25, i32* %29)
  %31 = load i32, i32* %3, align 4
  %32 = sext i32 %31 to i64
  %33 = getelementptr inbounds [100000 x %struct.student], [100000 x %struct.student]* %11, i64 0, i64 %32
  %34 = getelementptr inbounds %struct.student, %struct.student* %33, i32 0, i32 1
  %35 = load i32, i32* %34, align 4
  %36 = load i32, i32* %3, align 4
  %37 = sext i32 %36 to i64
  %38 = getelementptr inbounds [100000 x %struct.student], [100000 x %struct.student]* %11, i64 0, i64 %37
  %39 = getelementptr inbounds %struct.student, %struct.student* %38, i32 0, i32 2
  %40 = load i32, i32* %39, align 4
  %41 = add nsw i32 %35, %40
  %42 = load i32, i32* %3, align 4
  %43 = sext i32 %42 to i64
  %44 = getelementptr inbounds [100000 x i32], [100000 x i32]* %10, i64 0, i64 %43
  store i32 %41, i32* %44, align 4
  br label %45

45:                                               ; preds = %17
  %46 = load i32, i32* %3, align 4
  %47 = add nsw i32 %46, 1
  store i32 %47, i32* %3, align 4
  br label %13

48:                                               ; preds = %13
  store i32 0, i32* %4, align 4
  store i32 1, i32* %5, align 4
  store i32 2, i32* %6, align 4
  store i32 0, i32* %3, align 4
  br label %49

49:                                               ; preds = %118, %48
  %50 = load i32, i32* %3, align 4
  %51 = icmp slt i32 %50, 3
  br i1 %51, label %52, label %121

52:                                               ; preds = %49
  %53 = load i32, i32* %3, align 4
  %54 = sext i32 %53 to i64
  %55 = getelementptr inbounds [100000 x i32], [100000 x i32]* %10, i64 0, i64 %54
  %56 = load i32, i32* %55, align 4
  %57 = getelementptr inbounds [100000 x i32], [100000 x i32]* %10, i64 0, i64 0
  %58 = load i32, i32* %57, align 16
  %59 = icmp sge i32 %56, %58
  br i1 %59, label %60, label %82

60:                                               ; preds = %52
  %61 = load i32, i32* %3, align 4
  %62 = sext i32 %61 to i64
  %63 = getelementptr inbounds [100000 x i32], [100000 x i32]* %10, i64 0, i64 %62
  %64 = load i32, i32* %63, align 4
  %65 = getelementptr inbounds [100000 x i32], [100000 x i32]* %10, i64 0, i64 1
  %66 = load i32, i32* %65, align 4
  %67 = icmp sge i32 %64, %66
  br i1 %67, label %68, label %82

68:                                               ; preds = %60
  %69 = load i32, i32* %3, align 4
  %70 = sext i32 %69 to i64
  %71 = getelementptr inbounds [100000 x i32], [100000 x i32]* %10, i64 0, i64 %70
  %72 = load i32, i32* %71, align 4
  %73 = getelementptr inbounds [100000 x i32], [100000 x i32]* %10, i64 0, i64 2
  %74 = load i32, i32* %73, align 8
  %75 = icmp sge i32 %72, %74
  br i1 %75, label %76, label %82

76:                                               ; preds = %68
  %77 = load i32, i32* %3, align 4
  store i32 %77, i32* %4, align 4
  %78 = load i32, i32* %3, align 4
  %79 = sext i32 %78 to i64
  %80 = getelementptr inbounds [100000 x i32], [100000 x i32]* %10, i64 0, i64 %79
  %81 = load i32, i32* %80, align 4
  store i32 %81, i32* %7, align 4
  br label %118

82:                                               ; preds = %68, %60, %52
  %83 = load i32, i32* %3, align 4
  %84 = sext i32 %83 to i64
  %85 = getelementptr inbounds [100000 x i32], [100000 x i32]* %10, i64 0, i64 %84
  %86 = load i32, i32* %85, align 4
  %87 = getelementptr inbounds [100000 x i32], [100000 x i32]* %10, i64 0, i64 0
  %88 = load i32, i32* %87, align 16
  %89 = icmp sle i32 %86, %88
  br i1 %89, label %90, label %112

90:                                               ; preds = %82
  %91 = load i32, i32* %3, align 4
  %92 = sext i32 %91 to i64
  %93 = getelementptr inbounds [100000 x i32], [100000 x i32]* %10, i64 0, i64 %92
  %94 = load i32, i32* %93, align 4
  %95 = getelementptr inbounds [100000 x i32], [100000 x i32]* %10, i64 0, i64 1
  %96 = load i32, i32* %95, align 4
  %97 = icmp sle i32 %94, %96
  br i1 %97, label %98, label %112

98:                                               ; preds = %90
  %99 = load i32, i32* %3, align 4
  %100 = sext i32 %99 to i64
  %101 = getelementptr inbounds [100000 x i32], [100000 x i32]* %10, i64 0, i64 %100
  %102 = load i32, i32* %101, align 4
  %103 = getelementptr inbounds [100000 x i32], [100000 x i32]* %10, i64 0, i64 2
  %104 = load i32, i32* %103, align 8
  %105 = icmp sle i32 %102, %104
  br i1 %105, label %106, label %112

106:                                              ; preds = %98
  %107 = load i32, i32* %3, align 4
  store i32 %107, i32* %6, align 4
  %108 = load i32, i32* %3, align 4
  %109 = sext i32 %108 to i64
  %110 = getelementptr inbounds [100000 x i32], [100000 x i32]* %10, i64 0, i64 %109
  %111 = load i32, i32* %110, align 4
  store i32 %111, i32* %9, align 4
  br label %118

112:                                              ; preds = %98, %90, %82
  %113 = load i32, i32* %3, align 4
  store i32 %113, i32* %5, align 4
  %114 = load i32, i32* %3, align 4
  %115 = sext i32 %114 to i64
  %116 = getelementptr inbounds [100000 x i32], [100000 x i32]* %10, i64 0, i64 %115
  %117 = load i32, i32* %116, align 4
  store i32 %117, i32* %8, align 4
  br label %118

118:                                              ; preds = %112, %106, %76
  %119 = load i32, i32* %3, align 4
  %120 = add nsw i32 %119, 1
  store i32 %120, i32* %3, align 4
  br label %49

121:                                              ; preds = %49
  store i32 3, i32* %3, align 4
  br label %122

122:                                              ; preds = %174, %121
  %123 = load i32, i32* %3, align 4
  %124 = load i32, i32* %2, align 4
  %125 = icmp slt i32 %123, %124
  br i1 %125, label %126, label %177

126:                                              ; preds = %122
  %127 = load i32, i32* %3, align 4
  %128 = sext i32 %127 to i64
  %129 = getelementptr inbounds [100000 x i32], [100000 x i32]* %10, i64 0, i64 %128
  %130 = load i32, i32* %129, align 4
  %131 = load i32, i32* %9, align 4
  %132 = icmp sgt i32 %130, %131
  br i1 %132, label %133, label %173

133:                                              ; preds = %126
  %134 = load i32, i32* %3, align 4
  %135 = sext i32 %134 to i64
  %136 = getelementptr inbounds [100000 x i32], [100000 x i32]* %10, i64 0, i64 %135
  %137 = load i32, i32* %136, align 4
  %138 = load i32, i32* %7, align 4
  %139 = icmp sgt i32 %137, %138
  br i1 %139, label %140, label %150

140:                                              ; preds = %133
  %141 = load i32, i32* %5, align 4
  store i32 %141, i32* %6, align 4
  %142 = load i32, i32* %4, align 4
  store i32 %142, i32* %5, align 4
  %143 = load i32, i32* %3, align 4
  store i32 %143, i32* %4, align 4
  %144 = load i32, i32* %8, align 4
  store i32 %144, i32* %9, align 4
  %145 = load i32, i32* %7, align 4
  store i32 %145, i32* %8, align 4
  %146 = load i32, i32* %3, align 4
  %147 = sext i32 %146 to i64
  %148 = getelementptr inbounds [100000 x i32], [100000 x i32]* %10, i64 0, i64 %147
  %149 = load i32, i32* %148, align 4
  store i32 %149, i32* %7, align 4
  br label %172

150:                                              ; preds = %133
  %151 = load i32, i32* %3, align 4
  %152 = sext i32 %151 to i64
  %153 = getelementptr inbounds [100000 x i32], [100000 x i32]* %10, i64 0, i64 %152
  %154 = load i32, i32* %153, align 4
  %155 = load i32, i32* %8, align 4
  %156 = icmp sgt i32 %154, %155
  br i1 %156, label %157, label %165

157:                                              ; preds = %150
  %158 = load i32, i32* %5, align 4
  store i32 %158, i32* %6, align 4
  %159 = load i32, i32* %3, align 4
  store i32 %159, i32* %5, align 4
  %160 = load i32, i32* %8, align 4
  store i32 %160, i32* %9, align 4
  %161 = load i32, i32* %3, align 4
  %162 = sext i32 %161 to i64
  %163 = getelementptr inbounds [100000 x i32], [100000 x i32]* %10, i64 0, i64 %162
  %164 = load i32, i32* %163, align 4
  store i32 %164, i32* %8, align 4
  br label %171

165:                                              ; preds = %150
  %166 = load i32, i32* %3, align 4
  store i32 %166, i32* %6, align 4
  %167 = load i32, i32* %3, align 4
  %168 = sext i32 %167 to i64
  %169 = getelementptr inbounds [100000 x i32], [100000 x i32]* %10, i64 0, i64 %168
  %170 = load i32, i32* %169, align 4
  store i32 %170, i32* %9, align 4
  br label %171

171:                                              ; preds = %165, %157
  br label %172

172:                                              ; preds = %171, %140
  br label %173

173:                                              ; preds = %172, %126
  br label %174

174:                                              ; preds = %173
  %175 = load i32, i32* %3, align 4
  %176 = add nsw i32 %175, 1
  store i32 %176, i32* %3, align 4
  br label %122

177:                                              ; preds = %122
  %178 = load i32, i32* %4, align 4
  %179 = sext i32 %178 to i64
  %180 = getelementptr inbounds [100000 x %struct.student], [100000 x %struct.student]* %11, i64 0, i64 %179
  %181 = getelementptr inbounds %struct.student, %struct.student* %180, i32 0, i32 0
  %182 = load i32, i32* %181, align 4
  %183 = load i32, i32* %7, align 4
  %184 = call i32 (i8*, ...) @printf(i8* getelementptr inbounds ([7 x i8], [7 x i8]* @.str.2, i64 0, i64 0), i32 %182, i32 %183)
  %185 = load i32, i32* %5, align 4
  %186 = sext i32 %185 to i64
  %187 = getelementptr inbounds [100000 x %struct.student], [100000 x %struct.student]* %11, i64 0, i64 %186
  %188 = getelementptr inbounds %struct.student, %struct.student* %187, i32 0, i32 0
  %189 = load i32, i32* %188, align 4
  %190 = load i32, i32* %8, align 4
  %191 = call i32 (i8*, ...) @printf(i8* getelementptr inbounds ([7 x i8], [7 x i8]* @.str.2, i64 0, i64 0), i32 %189, i32 %190)
  %192 = load i32, i32* %6, align 4
  %193 = sext i32 %192 to i64
  %194 = getelementptr inbounds [100000 x %struct.student], [100000 x %struct.student]* %11, i64 0, i64 %193
  %195 = getelementptr inbounds %struct.student, %struct.student* %194, i32 0, i32 0
  %196 = load i32, i32* %195, align 4
  %197 = load i32, i32* %9, align 4
  %198 = call i32 (i8*, ...) @printf(i8* getelementptr inbounds ([7 x i8], [7 x i8]* @.str.2, i64 0, i64 0), i32 %196, i32 %197)
  %199 = call i32 @getchar()
  %200 = call i32 @getchar()
  %201 = load i32, i32* %1, align 4
  ret i32 %201
}

declare dso_local i32 @__isoc99_scanf(i8*, ...) #1

declare dso_local i32 @printf(i8*, ...) #1

declare dso_local i32 @getchar() #1


!llvm.module.flags = !{!0}
!llvm.ident = !{!1}

!0 = !{i32 1, !"wchar_size", i32 4}
!1 = !{!"clang version 10.0.0-4ubuntu1 "}
